target datalayout = "e-m:e-p270:32:32-p271:32:32-p272:64:64-i64:64-i128:128-f80:128-n8:16:32:64-S128"
target triple = "x86_64-unknown-linux-gnu"

%"class.Assimp::MDLImporter" = type <{ %"class.Assimp::BaseImporter", i32, [4 x i8], %"class.std::__cxx11::basic_string", ptr, i32, [4 x i8], ptr, ptr, i32, %"struct.Assimp::MDL::HalfLife::HL1ImportSettings", [2 x i8] }>
%"class.Assimp::BaseImporter" = type { ptr, double, double, %"class.std::__cxx11::basic_string", %"class.std::__exception_ptr::exception_ptr", ptr }
%"class.std::__exception_ptr::exception_ptr" = type { ptr }
%"class.std::__cxx11::basic_string" = type { %"struct.std::__cxx11::basic_string<char>::_Alloc_hider", i64, %union.anon }
%"struct.std::__cxx11::basic_string<char>::_Alloc_hider" = type { ptr }
%union.anon = type { i64, [8 x i8] }
%"struct.Assimp::MDL::HalfLife::HL1ImportSettings" = type { i8, i8, i8, i8, i8, i8, i8, i8, i8, i8 }
%"struct.Assimp::MDL::IntSharedData_MDL7" = type <{ %"class.std::vector.33", %"class.std::vector.37", ptr, i32, [4 x i8] }>
%"class.std::vector.33" = type { %"struct.std::_Bvector_base" }
%"struct.std::_Bvector_base" = type { %"struct.std::_Bvector_base<std::allocator<bool>>::_Bvector_impl" }
%"struct.std::_Bvector_base<std::allocator<bool>>::_Bvector_impl" = type { %"struct.std::_Bvector_base<std::allocator<bool>>::_Bvector_impl_data" }
%"struct.std::_Bvector_base<std::allocator<bool>>::_Bvector_impl_data" = type { %"struct.std::_Bit_iterator", %"struct.std::_Bit_iterator", ptr }
%"struct.std::_Bit_iterator" = type { %"struct.std::_Bit_iterator_base.base", [4 x i8] }
%"struct.std::_Bit_iterator_base.base" = type <{ ptr, i32 }>
%"class.std::vector.37" = type { %"struct.std::_Vector_base.38" }
%"struct.std::_Vector_base.38" = type { %"struct.std::_Vector_base<aiMaterial *, std::allocator<aiMaterial *>>::_Vector_impl" }
%"struct.std::_Vector_base<aiMaterial *, std::allocator<aiMaterial *>>::_Vector_impl" = type { %"struct.std::_Vector_base<aiMaterial *, std::allocator<aiMaterial *>>::_Vector_impl_data" }
%"struct.std::_Vector_base<aiMaterial *, std::allocator<aiMaterial *>>::_Vector_impl_data" = type { ptr, ptr, ptr }
%"struct.Assimp::MDL::IntGroupInfo_MDL7" = type { i32, ptr, ptr, ptr, ptr }
%"struct.Assimp::MDL::Header_MDL7" = type { [4 x i8], i32, i32, i32, i32, i32, i32, i16, i16, i16, i16, i16, i16, i16, i16, i16, i16 }
%"struct.Assimp::MDL::IntFrameInfo_MDL7" = type { i32, ptr }
%"struct.Assimp::MDL::Frame_MDL7" = type { [16 x i8], i32, i32 }
%"struct.Assimp::MDL::BoneTransform_MDL7" = type { [16 x float], i16, [2 x i8] }

@.str.87 = private unnamed_addr constant [71 x i8] c"Index overflow in frame area. Unable to parse this bone transformation\00", align 1
@.str.88 = private unnamed_addr constant [44 x i8] c"Ignoring animation keyframes in groups != 0\00", align 1

; Function Attrs: mustprogress uwtable
define hidden void @_ZN6Assimp11MDLImporter28ParseBoneTrafoKeys_3DGS_MDL7ERKNS_3MDL17IntGroupInfo_MDL7ERNS1_17IntFrameInfo_MDL7ERNS1_18IntSharedData_MDL7E(ptr noundef nonnull align 8 dereferenceable(158) %this, ptr noundef nonnull align 8 dereferenceable(40) %groupInfo, ptr noundef nonnull align 8 dereferenceable(16) %frame, ptr noundef nonnull align 8 dereferenceable(76) %shared) #2 align 2 {
entry:
  %this.addr = alloca ptr, align 8
  %groupInfo.addr = alloca ptr, align 8
  %frame.addr = alloca ptr, align 8
  %shared.addr = alloca ptr, align 8
  %pcHeader = alloca ptr, align 8
  %pcBoneTransforms = alloca ptr, align 8
  %iTrafo = alloca i32, align 4
  store ptr %this, ptr %this.addr, align 8
  store ptr %groupInfo, ptr %groupInfo.addr, align 8
  store ptr %frame, ptr %frame.addr, align 8
  store ptr %shared, ptr %shared.addr, align 8
  %this1 = load ptr, ptr %this.addr, align 8
  %mBuffer = getelementptr inbounds %"class.Assimp::MDLImporter", ptr %this1, i32 0, i32 4
  %0 = load ptr, ptr %mBuffer, align 8
  store ptr %0, ptr %pcHeader, align 8
  %1 = load ptr, ptr %frame.addr, align 8
  %pcFrame = getelementptr inbounds %"struct.Assimp::MDL::IntFrameInfo_MDL7", ptr %1, i32 0, i32 1
  %2 = load ptr, ptr %pcFrame, align 8
  %transmatrix_count = getelementptr inbounds %"struct.Assimp::MDL::Frame_MDL7", ptr %2, i32 0, i32 2
  %3 = load i32, ptr %transmatrix_count, align 4
  %tobool = icmp ne i32 %3, 0
  br i1 %tobool, label %if.then, label %if.end21

if.then:                                          ; preds = %entry
  %4 = load ptr, ptr %groupInfo.addr, align 8
  %iIndex = getelementptr inbounds %"struct.Assimp::MDL::IntGroupInfo_MDL7", ptr %4, i32 0, i32 0
  %5 = load i32, ptr %iIndex, align 8
  %tobool2 = icmp ne i32 %5, 0
  br i1 %tobool2, label %if.else18, label %if.then3

if.then3:                                         ; preds = %if.then
  %6 = load ptr, ptr %frame.addr, align 8
  %pcFrame4 = getelementptr inbounds %"struct.Assimp::MDL::IntFrameInfo_MDL7", ptr %6, i32 0, i32 1
  %7 = load ptr, ptr %pcFrame4, align 8
  %8 = load ptr, ptr %pcHeader, align 8
  %frame_stc_size = getelementptr inbounds %"struct.Assimp::MDL::Header_MDL7", ptr %8, i32 0, i32 16
  %9 = load i16, ptr %frame_stc_size, align 1
  %conv = zext i16 %9 to i32
  %idx.ext = sext i32 %conv to i64
  %add.ptr = getelementptr inbounds i8, ptr %7, i64 %idx.ext
  %10 = load ptr, ptr %frame.addr, align 8
  %pcFrame5 = getelementptr inbounds %"struct.Assimp::MDL::IntFrameInfo_MDL7", ptr %10, i32 0, i32 1
  %11 = load ptr, ptr %pcFrame5, align 8
  %vertices_count = getelementptr inbounds %"struct.Assimp::MDL::Frame_MDL7", ptr %11, i32 0, i32 1
  %12 = load i32, ptr %vertices_count, align 4
  %13 = load ptr, ptr %pcHeader, align 8
  %framevertex_stc_size = getelementptr inbounds %"struct.Assimp::MDL::Header_MDL7", ptr %13, i32 0, i32 14
  %14 = load i16, ptr %framevertex_stc_size, align 1
  %conv6 = zext i16 %14 to i32
  %mul = mul i32 %12, %conv6
  %idx.ext7 = zext i32 %mul to i64
  %add.ptr8 = getelementptr inbounds i8, ptr %add.ptr, i64 %idx.ext7
  store ptr %add.ptr8, ptr %pcBoneTransforms, align 8
  store i32 0, ptr %iTrafo, align 4
  br label %for.cond

for.cond:                                         ; preds = %for.inc, %if.then3
  %15 = load i32, ptr %iTrafo, align 4
  %16 = load ptr, ptr %frame.addr, align 8
  %pcFrame9 = getelementptr inbounds %"struct.Assimp::MDL::IntFrameInfo_MDL7", ptr %16, i32 0, i32 1
  %17 = load ptr, ptr %pcFrame9, align 8
  %transmatrix_count10 = getelementptr inbounds %"struct.Assimp::MDL::Frame_MDL7", ptr %17, i32 0, i32 2
  %18 = load i32, ptr %transmatrix_count10, align 4
  %cmp = icmp ult i32 %15, %18
  br i1 %cmp, label %for.body, label %for.end

for.body:                                         ; preds = %for.cond
  %19 = load ptr, ptr %pcBoneTransforms, align 8
  %bone_index = getelementptr inbounds %"struct.Assimp::MDL::BoneTransform_MDL7", ptr %19, i32 0, i32 1
  %20 = load i16, ptr %bone_index, align 1
  %conv11 = zext i16 %20 to i32
  %21 = load ptr, ptr %pcHeader, align 8
  %bones_num = getelementptr inbounds %"struct.Assimp::MDL::Header_MDL7", ptr %21, i32 0, i32 2
  %22 = load i32, ptr %bones_num, align 1
  %cmp12 = icmp uge i32 %conv11, %22
  br i1 %cmp12, label %if.then13, label %if.else

if.then13:                                        ; preds = %for.body
  %call = call noundef ptr @_ZN6Assimp13DefaultLogger3getEv()
  call void @_ZN6Assimp6Logger4warnEPKc(ptr noundef nonnull align 8 dereferenceable(12) %call, ptr noundef @.str.87)
  br label %if.end

if.else:                                          ; preds = %for.body
  %23 = load ptr, ptr %frame.addr, align 8
  %iIndex14 = getelementptr inbounds %"struct.Assimp::MDL::IntFrameInfo_MDL7", ptr %23, i32 0, i32 0
  %24 = load i32, ptr %iIndex14, align 8
  %25 = load ptr, ptr %pcBoneTransforms, align 8
  %26 = load ptr, ptr %shared.addr, align 8
  %apcOutBones = getelementptr inbounds %"struct.Assimp::MDL::IntSharedData_MDL7", ptr %26, i32 0, i32 2
  %27 = load ptr, ptr %apcOutBones, align 8
  call void @_ZN6Assimp11MDLImporter34AddAnimationBoneTrafoKey_3DGS_MDL7EjPKNS_3MDL18BoneTransform_MDL7EPPNS1_12IntBone_MDL7E(ptr noundef nonnull align 8 dereferenceable(158) %this1, i32 noundef %24, ptr noundef %25, ptr noundef %27)
  br label %if.end

if.end:                                           ; preds = %if.else, %if.then13
  %28 = load ptr, ptr %pcBoneTransforms, align 8
  %29 = load ptr, ptr %pcHeader, align 8
  %bonetrans_stc_size = getelementptr inbounds %"struct.Assimp::MDL::Header_MDL7", ptr %29, i32 0, i32 15
  %30 = load i16, ptr %bonetrans_stc_size, align 1
  %conv15 = zext i16 %30 to i32
  %idx.ext16 = sext i32 %conv15 to i64
  %add.ptr17 = getelementptr inbounds i8, ptr %28, i64 %idx.ext16
  store ptr %add.ptr17, ptr %pcBoneTransforms, align 8
  br label %for.inc

for.inc:                                          ; preds = %if.end
  %31 = load i32, ptr %iTrafo, align 4
  %inc = add i32 %31, 1
  store i32 %inc, ptr %iTrafo, align 4
  br label %for.cond, !llvm.loop !35

for.end:                                          ; preds = %for.cond
  br label %if.end20

if.else18:                                        ; preds = %if.then
  %call19 = call noundef ptr @_ZN6Assimp13DefaultLogger3getEv()
  call void @_ZN6Assimp6Logger4warnEPKc(ptr noundef nonnull align 8 dereferenceable(12) %call19, ptr noundef @.str.88)
  br label %if.end20

if.end20:                                         ; preds = %if.else18, %for.end
  br label %if.end21

if.end21:                                         ; preds = %if.end20, %entry
  ret void
}