; Function Attrs: mustprogress uwtable
define hidden void @_ZN6Assimp11MDLImporter28ParseBoneTrafoKeys_3DGS_MDL7ERKNS_3MDL17IntGroupInfo_MDL7ERNS1_17IntFrameInfo_MDL7ERNS1_18IntSharedData_MDL7E(ptr nocapture noundef nonnull readonly align 8 dereferenceable(158) %this, ptr nocapture noundef nonnull readonly align 8 dereferenceable(40) %groupInfo, ptr nocapture noundef nonnull readonly align 8 dereferenceable(16) %frame, ptr nocapture noundef nonnull readonly align 8 dereferenceable(76) %shared) local_unnamed_addr #2 align 2 {
entry:
  %mBuffer = getelementptr inbounds i8, ptr %this, i64 112
  %0 = load ptr, ptr %mBuffer, align 8
  %pcFrame = getelementptr inbounds i8, ptr %frame, i64 8
  %1 = load ptr, ptr %pcFrame, align 8
  %transmatrix_count = getelementptr inbounds i8, ptr %1, i64 20
  %2 = load i32, ptr %transmatrix_count, align 4
  %tobool.not = icmp eq i32 %2, 0
  br i1 %tobool.not, label %if.end21, label %if.then

if.then:                                          ; preds = %entry
  %3 = load i32, ptr %groupInfo, align 8
  %tobool2.not = icmp eq i32 %3, 0
  br i1 %tobool2.not, label %for.body.lr.ph, label %if.else18

for.body.lr.ph:                                   ; preds = %if.then
  %frame_stc_size = getelementptr inbounds i8, ptr %0, i64 46
  %4 = load i16, ptr %frame_stc_size, align 1
  %idx.ext = zext i16 %4 to i64
  %add.ptr = getelementptr inbounds i8, ptr %1, i64 %idx.ext
  %vertices_count = getelementptr inbounds i8, ptr %1, i64 16
  %5 = load i32, ptr %vertices_count, align 4
  %framevertex_stc_size = getelementptr inbounds i8, ptr %0, i64 42
  %6 = load i16, ptr %framevertex_stc_size, align 1
  %conv6 = zext i16 %6 to i32
  %mul = mul i32 %5, %conv6
  %idx.ext7 = zext i32 %mul to i64
  %add.ptr8 = getelementptr inbounds i8, ptr %add.ptr, i64 %idx.ext7
  %bones_num = getelementptr inbounds i8, ptr %0, i64 8
  %apcOutBones = getelementptr inbounds i8, ptr %shared, i64 64
  %bonetrans_stc_size = getelementptr inbounds i8, ptr %0, i64 44
  br label %for.body

for.body:                                         ; preds = %for.body.lr.ph, %if.end
  %iTrafo.014 = phi i32 [ 0, %for.body.lr.ph ], [ %inc, %if.end ]
  %pcBoneTransforms.013 = phi ptr [ %add.ptr8, %for.body.lr.ph ], [ %add.ptr17, %if.end ]
  %bone_index = getelementptr inbounds i8, ptr %pcBoneTransforms.013, i64 64
  %7 = load i16, ptr %bone_index, align 1
  %conv11 = zext i16 %7 to i32
  %8 = load i32, ptr %bones_num, align 1
  %cmp12.not = icmp ugt i32 %8, %conv11
  br i1 %cmp12.not, label %if.else, label %if.then13

if.then13:                                        ; preds = %for.body
  %call = tail call noundef ptr @_ZN6Assimp13DefaultLogger3getEv()
  tail call void @_ZN6Assimp6Logger4warnEPKc(ptr noundef nonnull align 8 dereferenceable(12) %call, ptr noundef nonnull @.str.87)
  br label %if.end

if.else:                                          ; preds = %for.body
  %9 = load i32, ptr %frame, align 8
  %10 = load ptr, ptr %apcOutBones, align 8
  tail call void @_ZN6Assimp11MDLImporter34AddAnimationBoneTrafoKey_3DGS_MDL7EjPKNS_3MDL18BoneTransform_MDL7EPPNS1_12IntBone_MDL7E(ptr nonnull align 8 poison, i32 noundef %9, ptr noundef nonnull %pcBoneTransforms.013, ptr noundef %10)
  br label %if.end

if.end:                                           ; preds = %if.else, %if.then13
  %11 = load i16, ptr %bonetrans_stc_size, align 1
  %idx.ext16 = zext i16 %11 to i64
  %add.ptr17 = getelementptr inbounds i8, ptr %pcBoneTransforms.013, i64 %idx.ext16
  %inc = add nuw i32 %iTrafo.014, 1
  %12 = load ptr, ptr %pcFrame, align 8
  %transmatrix_count10 = getelementptr inbounds i8, ptr %12, i64 20
  %13 = load i32, ptr %transmatrix_count10, align 4
  %cmp = icmp ult i32 %inc, %13
  br i1 %cmp, label %for.body, label %if.end21, !llvm.loop !41

if.else18:                                        ; preds = %if.then
  %call19 = tail call noundef ptr @_ZN6Assimp13DefaultLogger3getEv()
  tail call void @_ZN6Assimp6Logger4warnEPKc(ptr noundef nonnull align 8 dereferenceable(12) %call19, ptr noundef nonnull @.str.88)
  br label %if.end21

if.end21:                                         ; preds = %if.end, %if.else18, %entry
  ret void
}